/*
 * Intel ACPI Component Architecture
 * AML Disassembler version 20130117-64 [Jan  6 2014]
 * Copyright (c) 2000 - 2013 Intel Corporation
 * 
 * Disassembly of apic.dat, Mon Jan  6 05:08:02 2014
 *
 * ACPI Data Table [APIC]
 *
 * Format: [HexOffset DecimalOffset ByteLength]  FieldName : FieldValue
 */

[000h 0000   4]                    Signature : "APIC"    [Multiple APIC Description Table (MADT)]
[004h 0004   4]                 Table Length : 00000098
[008h 0008   1]                     Revision : 01
[009h 0009   1]                     Checksum : F3
[00Ah 0010   6]                       Oem ID : "LENOVO"
[010h 0016   8]                 Oem Table ID : "TP-8A   "
[018h 0024   4]                 Oem Revision : 00001440
[01Ch 0028   4]              Asl Compiler ID : "PTL "
[020h 0032   4]        Asl Compiler Revision : 00000002

[024h 0036   4]           Local Apic Address : FEE00000
[028h 0040   4]        Flags (decoded below) : 00000001
                         PC-AT Compatibility : 1

[02Ch 0044   1]                Subtable Type : 00 [Processor Local APIC]
[02Dh 0045   1]                       Length : 08
[02Eh 0046   1]                 Processor ID : 01
[02Fh 0047   1]                Local Apic ID : 00
[030h 0048   4]        Flags (decoded below) : 00000001
                           Processor Enabled : 1

[034h 0052   1]                Subtable Type : 00 [Processor Local APIC]
[035h 0053   1]                       Length : 08
[036h 0054   1]                 Processor ID : 02
[037h 0055   1]                Local Apic ID : 01
[038h 0056   4]        Flags (decoded below) : 00000001
                           Processor Enabled : 1

[03Ch 0060   1]                Subtable Type : 00 [Processor Local APIC]
[03Dh 0061   1]                       Length : 08
[03Eh 0062   1]                 Processor ID : 03
[03Fh 0063   1]                Local Apic ID : 02
[040h 0064   4]        Flags (decoded below) : 00000001
                           Processor Enabled : 1

[044h 0068   1]                Subtable Type : 00 [Processor Local APIC]
[045h 0069   1]                       Length : 08
[046h 0070   1]                 Processor ID : 04
[047h 0071   1]                Local Apic ID : 03
[048h 0072   4]        Flags (decoded below) : 00000001
                           Processor Enabled : 1

[04Ch 0076   1]                Subtable Type : 00 [Processor Local APIC]
[04Dh 0077   1]                       Length : 08
[04Eh 0078   1]                 Processor ID : 05
[04Fh 0079   1]                Local Apic ID : 00
[050h 0080   4]        Flags (decoded below) : 00000000
                           Processor Enabled : 0

[054h 0084   1]                Subtable Type : 00 [Processor Local APIC]
[055h 0085   1]                       Length : 08
[056h 0086   1]                 Processor ID : 06
[057h 0087   1]                Local Apic ID : 00
[058h 0088   4]        Flags (decoded below) : 00000000
                           Processor Enabled : 0

[05Ch 0092   1]                Subtable Type : 00 [Processor Local APIC]
[05Dh 0093   1]                       Length : 08
[05Eh 0094   1]                 Processor ID : 07
[05Fh 0095   1]                Local Apic ID : 00
[060h 0096   4]        Flags (decoded below) : 00000000
                           Processor Enabled : 0

[064h 0100   1]                Subtable Type : 00 [Processor Local APIC]
[065h 0101   1]                       Length : 08
[066h 0102   1]                 Processor ID : 08
[067h 0103   1]                Local Apic ID : 00
[068h 0104   4]        Flags (decoded below) : 00000000
                           Processor Enabled : 0

[06Ch 0108   1]                Subtable Type : 01 [I/O APIC]
[06Dh 0109   1]                       Length : 0C
[06Eh 0110   1]                  I/O Apic ID : 02
[06Fh 0111   1]                     Reserved : 00
[070h 0112   4]                      Address : FEC00000
[074h 0116   4]                    Interrupt : 00000000

[078h 0120   1]                Subtable Type : 02 [Interrupt Source Override]
[079h 0121   1]                       Length : 0A
[07Ah 0122   1]                          Bus : 00
[07Bh 0123   1]                       Source : 00
[07Ch 0124   4]                    Interrupt : 00000002
[080h 0128   2]        Flags (decoded below) : 0000
                                    Polarity : 0
                                Trigger Mode : 0

[082h 0130   1]                Subtable Type : 02 [Interrupt Source Override]
[083h 0131   1]                       Length : 0A
[084h 0132   1]                          Bus : 00
[085h 0133   1]                       Source : 09
[086h 0134   4]                    Interrupt : 00000009
[08Ah 0138   2]        Flags (decoded below) : 000D
                                    Polarity : 1
                                Trigger Mode : 3

[08Ch 0140   1]                Subtable Type : 04 [Local APIC NMI]
[08Dh 0141   1]                       Length : 06
[08Eh 0142   1]                 Processor ID : 00
[08Fh 0143   2]        Flags (decoded below) : 0005
                                    Polarity : 1
                                Trigger Mode : 1
[091h 0145   1]         Interrupt Input LINT : 01

[092h 0146   1]                Subtable Type : 04 [Local APIC NMI]
[093h 0147   1]                       Length : 06
[094h 0148   1]                 Processor ID : 01
[095h 0149   2]        Flags (decoded below) : 0005
                                    Polarity : 1
                                Trigger Mode : 1
[097h 0151   1]         Interrupt Input LINT : 01

Raw Table Data: Length 152 (0x98)

  0000: 41 50 49 43 98 00 00 00 01 F3 4C 45 4E 4F 56 4F  APIC......LENOVO
  0010: 54 50 2D 38 41 20 20 20 40 14 00 00 50 54 4C 20  TP-8A   @...PTL 
  0020: 02 00 00 00 00 00 E0 FE 01 00 00 00 00 08 01 00  ................
  0030: 01 00 00 00 00 08 02 01 01 00 00 00 00 08 03 02  ................
  0040: 01 00 00 00 00 08 04 03 01 00 00 00 00 08 05 00  ................
  0050: 00 00 00 00 00 08 06 00 00 00 00 00 00 08 07 00  ................
  0060: 00 00 00 00 00 08 08 00 00 00 00 00 01 0C 02 00  ................
  0070: 00 00 C0 FE 00 00 00 00 02 0A 00 00 02 00 00 00  ................
  0080: 00 00 02 0A 00 09 09 00 00 00 0D 00 04 06 00 05  ................
  0090: 00 01 04 06 01 05 00 01                          ........
